
_ln:     file format elf32-i386


Disassembly of section .text:

00000000 <main>:
#include "stat.h"
#include "user.h"

int
main(int argc, char *argv[])
{
   0:	8d 4c 24 04          	lea    0x4(%esp),%ecx
   4:	83 e4 f0             	and    $0xfffffff0,%esp
   7:	ff 71 fc             	push   -0x4(%ecx)
   a:	55                   	push   %ebp
   b:	89 e5                	mov    %esp,%ebp
   d:	53                   	push   %ebx
   e:	51                   	push   %ecx
   f:	8b 59 04             	mov    0x4(%ecx),%ebx
  if(argc != 3){
  12:	83 39 03             	cmpl   $0x3,(%ecx)
  15:	74 13                	je     2a <main+0x2a>
    printf(2, "Usage: ln old new\n");
  17:	52                   	push   %edx
  18:	52                   	push   %edx
  19:	68 40 06 00 00       	push   $0x640
  1e:	6a 02                	push   $0x2
  20:	e8 37 03 00 00       	call   35c <printf>
    exit();
  25:	e8 09 02 00 00       	call   233 <exit>
  }
  if(link(argv[1], argv[2]) < 0)
  2a:	50                   	push   %eax
  2b:	50                   	push   %eax
  2c:	ff 73 08             	push   0x8(%ebx)
  2f:	ff 73 04             	push   0x4(%ebx)
  32:	e8 5c 02 00 00       	call   293 <link>
  37:	83 c4 10             	add    $0x10,%esp
  3a:	85 c0                	test   %eax,%eax
  3c:	78 05                	js     43 <main+0x43>
    printf(2, "link %s %s: failed\n", argv[1], argv[2]);
  exit();
  3e:	e8 f0 01 00 00       	call   233 <exit>
    printf(2, "link %s %s: failed\n", argv[1], argv[2]);
  43:	ff 73 08             	push   0x8(%ebx)
  46:	ff 73 04             	push   0x4(%ebx)
  49:	68 53 06 00 00       	push   $0x653
  4e:	6a 02                	push   $0x2
  50:	e8 07 03 00 00       	call   35c <printf>
  55:	83 c4 10             	add    $0x10,%esp
  58:	eb e4                	jmp    3e <main+0x3e>
  5a:	66 90                	xchg   %ax,%ax

0000005c <strcpy>:
#include "user.h"
#include "x86.h"

char*
strcpy(char *s, const char *t)
{
  5c:	55                   	push   %ebp
  5d:	89 e5                	mov    %esp,%ebp
  5f:	53                   	push   %ebx
  60:	8b 4d 08             	mov    0x8(%ebp),%ecx
  63:	8b 5d 0c             	mov    0xc(%ebp),%ebx
  char *os;

  os = s;
  while((*s++ = *t++) != 0)
  66:	31 c0                	xor    %eax,%eax
  68:	8a 14 03             	mov    (%ebx,%eax,1),%dl
  6b:	88 14 01             	mov    %dl,(%ecx,%eax,1)
  6e:	40                   	inc    %eax
  6f:	84 d2                	test   %dl,%dl
  71:	75 f5                	jne    68 <strcpy+0xc>
    ;
  return os;
}
  73:	89 c8                	mov    %ecx,%eax
  75:	8b 5d fc             	mov    -0x4(%ebp),%ebx
  78:	c9                   	leave  
  79:	c3                   	ret    
  7a:	66 90                	xchg   %ax,%ax

0000007c <strcmp>:

int
strcmp(const char *p, const char *q)
{
  7c:	55                   	push   %ebp
  7d:	89 e5                	mov    %esp,%ebp
  7f:	53                   	push   %ebx
  80:	8b 55 08             	mov    0x8(%ebp),%edx
  83:	8b 5d 0c             	mov    0xc(%ebp),%ebx
  while(*p && *p == *q)
  86:	0f b6 02             	movzbl (%edx),%eax
  89:	84 c0                	test   %al,%al
  8b:	75 10                	jne    9d <strcmp+0x21>
  8d:	eb 2a                	jmp    b9 <strcmp+0x3d>
  8f:	90                   	nop
    p++, q++;
  90:	42                   	inc    %edx
  91:	8d 4b 01             	lea    0x1(%ebx),%ecx
  while(*p && *p == *q)
  94:	0f b6 02             	movzbl (%edx),%eax
  97:	84 c0                	test   %al,%al
  99:	74 11                	je     ac <strcmp+0x30>
    p++, q++;
  9b:	89 cb                	mov    %ecx,%ebx
  while(*p && *p == *q)
  9d:	0f b6 0b             	movzbl (%ebx),%ecx
  a0:	38 c1                	cmp    %al,%cl
  a2:	74 ec                	je     90 <strcmp+0x14>
  return (uchar)*p - (uchar)*q;
  a4:	29 c8                	sub    %ecx,%eax
}
  a6:	8b 5d fc             	mov    -0x4(%ebp),%ebx
  a9:	c9                   	leave  
  aa:	c3                   	ret    
  ab:	90                   	nop
  return (uchar)*p - (uchar)*q;
  ac:	0f b6 4b 01          	movzbl 0x1(%ebx),%ecx
  b0:	31 c0                	xor    %eax,%eax
  b2:	29 c8                	sub    %ecx,%eax
}
  b4:	8b 5d fc             	mov    -0x4(%ebp),%ebx
  b7:	c9                   	leave  
  b8:	c3                   	ret    
  return (uchar)*p - (uchar)*q;
  b9:	0f b6 0b             	movzbl (%ebx),%ecx
  bc:	31 c0                	xor    %eax,%eax
  be:	eb e4                	jmp    a4 <strcmp+0x28>

000000c0 <strlen>:

uint
strlen(const char *s)
{
  c0:	55                   	push   %ebp
  c1:	89 e5                	mov    %esp,%ebp
  c3:	8b 55 08             	mov    0x8(%ebp),%edx
  int n;

  for(n = 0; s[n]; n++)
  c6:	80 3a 00             	cmpb   $0x0,(%edx)
  c9:	74 15                	je     e0 <strlen+0x20>
  cb:	31 c0                	xor    %eax,%eax
  cd:	8d 76 00             	lea    0x0(%esi),%esi
  d0:	40                   	inc    %eax
  d1:	89 c1                	mov    %eax,%ecx
  d3:	80 3c 02 00          	cmpb   $0x0,(%edx,%eax,1)
  d7:	75 f7                	jne    d0 <strlen+0x10>
    ;
  return n;
}
  d9:	89 c8                	mov    %ecx,%eax
  db:	5d                   	pop    %ebp
  dc:	c3                   	ret    
  dd:	8d 76 00             	lea    0x0(%esi),%esi
  for(n = 0; s[n]; n++)
  e0:	31 c9                	xor    %ecx,%ecx
}
  e2:	89 c8                	mov    %ecx,%eax
  e4:	5d                   	pop    %ebp
  e5:	c3                   	ret    
  e6:	66 90                	xchg   %ax,%ax

000000e8 <memset>:

void*
memset(void *dst, int c, uint n)
{
  e8:	55                   	push   %ebp
  e9:	89 e5                	mov    %esp,%ebp
  eb:	57                   	push   %edi
}

static inline void
stosb(void *addr, int data, int cnt)
{
  asm volatile("cld; rep stosb" :
  ec:	8b 7d 08             	mov    0x8(%ebp),%edi
  ef:	8b 4d 10             	mov    0x10(%ebp),%ecx
  f2:	8b 45 0c             	mov    0xc(%ebp),%eax
  f5:	fc                   	cld    
  f6:	f3 aa                	rep stos %al,%es:(%edi)
  stosb(dst, c, n);
  return dst;
}
  f8:	8b 45 08             	mov    0x8(%ebp),%eax
  fb:	8b 7d fc             	mov    -0x4(%ebp),%edi
  fe:	c9                   	leave  
  ff:	c3                   	ret    

00000100 <strchr>:

char*
strchr(const char *s, char c)
{
 100:	55                   	push   %ebp
 101:	89 e5                	mov    %esp,%ebp
 103:	8b 45 08             	mov    0x8(%ebp),%eax
 106:	8a 4d 0c             	mov    0xc(%ebp),%cl
  for(; *s; s++)
 109:	8a 10                	mov    (%eax),%dl
 10b:	84 d2                	test   %dl,%dl
 10d:	75 0c                	jne    11b <strchr+0x1b>
 10f:	eb 13                	jmp    124 <strchr+0x24>
 111:	8d 76 00             	lea    0x0(%esi),%esi
 114:	40                   	inc    %eax
 115:	8a 10                	mov    (%eax),%dl
 117:	84 d2                	test   %dl,%dl
 119:	74 09                	je     124 <strchr+0x24>
    if(*s == c)
 11b:	38 d1                	cmp    %dl,%cl
 11d:	75 f5                	jne    114 <strchr+0x14>
      return (char*)s;
  return 0;
}
 11f:	5d                   	pop    %ebp
 120:	c3                   	ret    
 121:	8d 76 00             	lea    0x0(%esi),%esi
  return 0;
 124:	31 c0                	xor    %eax,%eax
}
 126:	5d                   	pop    %ebp
 127:	c3                   	ret    

00000128 <gets>:

char*
gets(char *buf, int max)
{
 128:	55                   	push   %ebp
 129:	89 e5                	mov    %esp,%ebp
 12b:	57                   	push   %edi
 12c:	56                   	push   %esi
 12d:	53                   	push   %ebx
 12e:	83 ec 1c             	sub    $0x1c,%esp
  int i, cc;
  char c;

  for(i=0; i+1 < max; ){
 131:	31 db                	xor    %ebx,%ebx
    cc = read(0, &c, 1);
 133:	8d 7d e7             	lea    -0x19(%ebp),%edi
  for(i=0; i+1 < max; ){
 136:	eb 24                	jmp    15c <gets+0x34>
    cc = read(0, &c, 1);
 138:	50                   	push   %eax
 139:	6a 01                	push   $0x1
 13b:	57                   	push   %edi
 13c:	6a 00                	push   $0x0
 13e:	e8 08 01 00 00       	call   24b <read>
    if(cc < 1)
 143:	83 c4 10             	add    $0x10,%esp
 146:	85 c0                	test   %eax,%eax
 148:	7e 1c                	jle    166 <gets+0x3e>
      break;
    buf[i++] = c;
 14a:	8a 45 e7             	mov    -0x19(%ebp),%al
 14d:	8b 55 08             	mov    0x8(%ebp),%edx
 150:	88 44 1a ff          	mov    %al,-0x1(%edx,%ebx,1)
    if(c == '\n' || c == '\r')
 154:	3c 0a                	cmp    $0xa,%al
 156:	74 20                	je     178 <gets+0x50>
 158:	3c 0d                	cmp    $0xd,%al
 15a:	74 1c                	je     178 <gets+0x50>
  for(i=0; i+1 < max; ){
 15c:	89 de                	mov    %ebx,%esi
 15e:	8d 5b 01             	lea    0x1(%ebx),%ebx
 161:	3b 5d 0c             	cmp    0xc(%ebp),%ebx
 164:	7c d2                	jl     138 <gets+0x10>
      break;
  }
  buf[i] = '\0';
 166:	8b 45 08             	mov    0x8(%ebp),%eax
 169:	c6 04 30 00          	movb   $0x0,(%eax,%esi,1)
  return buf;
}
 16d:	8d 65 f4             	lea    -0xc(%ebp),%esp
 170:	5b                   	pop    %ebx
 171:	5e                   	pop    %esi
 172:	5f                   	pop    %edi
 173:	5d                   	pop    %ebp
 174:	c3                   	ret    
 175:	8d 76 00             	lea    0x0(%esi),%esi
 178:	89 de                	mov    %ebx,%esi
  buf[i] = '\0';
 17a:	8b 45 08             	mov    0x8(%ebp),%eax
 17d:	c6 04 30 00          	movb   $0x0,(%eax,%esi,1)
}
 181:	8d 65 f4             	lea    -0xc(%ebp),%esp
 184:	5b                   	pop    %ebx
 185:	5e                   	pop    %esi
 186:	5f                   	pop    %edi
 187:	5d                   	pop    %ebp
 188:	c3                   	ret    
 189:	8d 76 00             	lea    0x0(%esi),%esi

0000018c <stat>:

int
stat(const char *n, struct stat *st)
{
 18c:	55                   	push   %ebp
 18d:	89 e5                	mov    %esp,%ebp
 18f:	56                   	push   %esi
 190:	53                   	push   %ebx
  int fd;
  int r;

  fd = open(n, O_RDONLY);
 191:	83 ec 08             	sub    $0x8,%esp
 194:	6a 00                	push   $0x0
 196:	ff 75 08             	push   0x8(%ebp)
 199:	e8 d5 00 00 00       	call   273 <open>
  if(fd < 0)
 19e:	83 c4 10             	add    $0x10,%esp
 1a1:	85 c0                	test   %eax,%eax
 1a3:	78 27                	js     1cc <stat+0x40>
 1a5:	89 c3                	mov    %eax,%ebx
    return -1;
  r = fstat(fd, st);
 1a7:	83 ec 08             	sub    $0x8,%esp
 1aa:	ff 75 0c             	push   0xc(%ebp)
 1ad:	50                   	push   %eax
 1ae:	e8 d8 00 00 00       	call   28b <fstat>
 1b3:	89 c6                	mov    %eax,%esi
  close(fd);
 1b5:	89 1c 24             	mov    %ebx,(%esp)
 1b8:	e8 9e 00 00 00       	call   25b <close>
  return r;
 1bd:	83 c4 10             	add    $0x10,%esp
}
 1c0:	89 f0                	mov    %esi,%eax
 1c2:	8d 65 f8             	lea    -0x8(%ebp),%esp
 1c5:	5b                   	pop    %ebx
 1c6:	5e                   	pop    %esi
 1c7:	5d                   	pop    %ebp
 1c8:	c3                   	ret    
 1c9:	8d 76 00             	lea    0x0(%esi),%esi
    return -1;
 1cc:	be ff ff ff ff       	mov    $0xffffffff,%esi
 1d1:	eb ed                	jmp    1c0 <stat+0x34>
 1d3:	90                   	nop

000001d4 <atoi>:

int
atoi(const char *s)
{
 1d4:	55                   	push   %ebp
 1d5:	89 e5                	mov    %esp,%ebp
 1d7:	53                   	push   %ebx
 1d8:	8b 4d 08             	mov    0x8(%ebp),%ecx
  int n;

  n = 0;
  while('0' <= *s && *s <= '9')
 1db:	0f be 01             	movsbl (%ecx),%eax
 1de:	8d 50 d0             	lea    -0x30(%eax),%edx
 1e1:	80 fa 09             	cmp    $0x9,%dl
  n = 0;
 1e4:	ba 00 00 00 00       	mov    $0x0,%edx
  while('0' <= *s && *s <= '9')
 1e9:	77 16                	ja     201 <atoi+0x2d>
 1eb:	90                   	nop
    n = n*10 + *s++ - '0';
 1ec:	41                   	inc    %ecx
 1ed:	8d 14 92             	lea    (%edx,%edx,4),%edx
 1f0:	01 d2                	add    %edx,%edx
 1f2:	8d 54 02 d0          	lea    -0x30(%edx,%eax,1),%edx
  while('0' <= *s && *s <= '9')
 1f6:	0f be 01             	movsbl (%ecx),%eax
 1f9:	8d 58 d0             	lea    -0x30(%eax),%ebx
 1fc:	80 fb 09             	cmp    $0x9,%bl
 1ff:	76 eb                	jbe    1ec <atoi+0x18>
  return n;
}
 201:	89 d0                	mov    %edx,%eax
 203:	8b 5d fc             	mov    -0x4(%ebp),%ebx
 206:	c9                   	leave  
 207:	c3                   	ret    

00000208 <memmove>:

void*
memmove(void *vdst, const void *vsrc, int n)
{
 208:	55                   	push   %ebp
 209:	89 e5                	mov    %esp,%ebp
 20b:	57                   	push   %edi
 20c:	56                   	push   %esi
 20d:	8b 55 08             	mov    0x8(%ebp),%edx
 210:	8b 75 0c             	mov    0xc(%ebp),%esi
 213:	8b 45 10             	mov    0x10(%ebp),%eax
  char *dst;
  const char *src;

  dst = vdst;
  src = vsrc;
  while(n-- > 0)
 216:	85 c0                	test   %eax,%eax
 218:	7e 0b                	jle    225 <memmove+0x1d>
 21a:	01 d0                	add    %edx,%eax
  dst = vdst;
 21c:	89 d7                	mov    %edx,%edi
 21e:	66 90                	xchg   %ax,%ax
    *dst++ = *src++;
 220:	a4                   	movsb  %ds:(%esi),%es:(%edi)
  while(n-- > 0)
 221:	39 f8                	cmp    %edi,%eax
 223:	75 fb                	jne    220 <memmove+0x18>
  return vdst;
}
 225:	89 d0                	mov    %edx,%eax
 227:	5e                   	pop    %esi
 228:	5f                   	pop    %edi
 229:	5d                   	pop    %ebp
 22a:	c3                   	ret    

0000022b <fork>:
  name: \
    movl $SYS_ ## name, %eax; \
    int $T_SYSCALL; \
    ret

SYSCALL(fork)
 22b:	b8 01 00 00 00       	mov    $0x1,%eax
 230:	cd 40                	int    $0x40
 232:	c3                   	ret    

00000233 <exit>:
SYSCALL(exit)
 233:	b8 02 00 00 00       	mov    $0x2,%eax
 238:	cd 40                	int    $0x40
 23a:	c3                   	ret    

0000023b <wait>:
SYSCALL(wait)
 23b:	b8 03 00 00 00       	mov    $0x3,%eax
 240:	cd 40                	int    $0x40
 242:	c3                   	ret    

00000243 <pipe>:
SYSCALL(pipe)
 243:	b8 04 00 00 00       	mov    $0x4,%eax
 248:	cd 40                	int    $0x40
 24a:	c3                   	ret    

0000024b <read>:
SYSCALL(read)
 24b:	b8 05 00 00 00       	mov    $0x5,%eax
 250:	cd 40                	int    $0x40
 252:	c3                   	ret    

00000253 <write>:
SYSCALL(write)
 253:	b8 10 00 00 00       	mov    $0x10,%eax
 258:	cd 40                	int    $0x40
 25a:	c3                   	ret    

0000025b <close>:
SYSCALL(close)
 25b:	b8 15 00 00 00       	mov    $0x15,%eax
 260:	cd 40                	int    $0x40
 262:	c3                   	ret    

00000263 <kill>:
SYSCALL(kill)
 263:	b8 06 00 00 00       	mov    $0x6,%eax
 268:	cd 40                	int    $0x40
 26a:	c3                   	ret    

0000026b <exec>:
SYSCALL(exec)
 26b:	b8 07 00 00 00       	mov    $0x7,%eax
 270:	cd 40                	int    $0x40
 272:	c3                   	ret    

00000273 <open>:
SYSCALL(open)
 273:	b8 0f 00 00 00       	mov    $0xf,%eax
 278:	cd 40                	int    $0x40
 27a:	c3                   	ret    

0000027b <mknod>:
SYSCALL(mknod)
 27b:	b8 11 00 00 00       	mov    $0x11,%eax
 280:	cd 40                	int    $0x40
 282:	c3                   	ret    

00000283 <unlink>:
SYSCALL(unlink)
 283:	b8 12 00 00 00       	mov    $0x12,%eax
 288:	cd 40                	int    $0x40
 28a:	c3                   	ret    

0000028b <fstat>:
SYSCALL(fstat)
 28b:	b8 08 00 00 00       	mov    $0x8,%eax
 290:	cd 40                	int    $0x40
 292:	c3                   	ret    

00000293 <link>:
SYSCALL(link)
 293:	b8 13 00 00 00       	mov    $0x13,%eax
 298:	cd 40                	int    $0x40
 29a:	c3                   	ret    

0000029b <mkdir>:
SYSCALL(mkdir)
 29b:	b8 14 00 00 00       	mov    $0x14,%eax
 2a0:	cd 40                	int    $0x40
 2a2:	c3                   	ret    

000002a3 <chdir>:
SYSCALL(chdir)
 2a3:	b8 09 00 00 00       	mov    $0x9,%eax
 2a8:	cd 40                	int    $0x40
 2aa:	c3                   	ret    

000002ab <dup>:
SYSCALL(dup)
 2ab:	b8 0a 00 00 00       	mov    $0xa,%eax
 2b0:	cd 40                	int    $0x40
 2b2:	c3                   	ret    

000002b3 <getpid>:
SYSCALL(getpid)
 2b3:	b8 0b 00 00 00       	mov    $0xb,%eax
 2b8:	cd 40                	int    $0x40
 2ba:	c3                   	ret    

000002bb <sbrk>:
SYSCALL(sbrk)
 2bb:	b8 0c 00 00 00       	mov    $0xc,%eax
 2c0:	cd 40                	int    $0x40
 2c2:	c3                   	ret    

000002c3 <sleep>:
SYSCALL(sleep)
 2c3:	b8 0d 00 00 00       	mov    $0xd,%eax
 2c8:	cd 40                	int    $0x40
 2ca:	c3                   	ret    

000002cb <uptime>:
SYSCALL(uptime)
 2cb:	b8 0e 00 00 00       	mov    $0xe,%eax
 2d0:	cd 40                	int    $0x40
 2d2:	c3                   	ret    
 2d3:	90                   	nop

000002d4 <printint>:
  write(fd, &c, 1);
}

static void
printint(int fd, int xx, int base, int sgn)
{
 2d4:	55                   	push   %ebp
 2d5:	89 e5                	mov    %esp,%ebp
 2d7:	57                   	push   %edi
 2d8:	56                   	push   %esi
 2d9:	53                   	push   %ebx
 2da:	83 ec 3c             	sub    $0x3c,%esp
 2dd:	89 45 bc             	mov    %eax,-0x44(%ebp)
 2e0:	89 4d c4             	mov    %ecx,-0x3c(%ebp)
  uint x;

  neg = 0;
  if(sgn && xx < 0){
    neg = 1;
    x = -xx;
 2e3:	89 d1                	mov    %edx,%ecx
  if(sgn && xx < 0){
 2e5:	8b 5d 08             	mov    0x8(%ebp),%ebx
 2e8:	85 db                	test   %ebx,%ebx
 2ea:	74 04                	je     2f0 <printint+0x1c>
 2ec:	85 d2                	test   %edx,%edx
 2ee:	78 68                	js     358 <printint+0x84>
  neg = 0;
 2f0:	c7 45 08 00 00 00 00 	movl   $0x0,0x8(%ebp)
  } else {
    x = xx;
  }

  i = 0;
 2f7:	31 ff                	xor    %edi,%edi
 2f9:	8d 75 d7             	lea    -0x29(%ebp),%esi
  do{
    buf[i++] = digits[x % base];
 2fc:	89 c8                	mov    %ecx,%eax
 2fe:	31 d2                	xor    %edx,%edx
 300:	f7 75 c4             	divl   -0x3c(%ebp)
 303:	89 fb                	mov    %edi,%ebx
 305:	8d 7f 01             	lea    0x1(%edi),%edi
 308:	8a 92 c8 06 00 00    	mov    0x6c8(%edx),%dl
 30e:	88 54 1e 01          	mov    %dl,0x1(%esi,%ebx,1)
  }while((x /= base) != 0);
 312:	89 4d c0             	mov    %ecx,-0x40(%ebp)
 315:	89 c1                	mov    %eax,%ecx
 317:	8b 45 c4             	mov    -0x3c(%ebp),%eax
 31a:	3b 45 c0             	cmp    -0x40(%ebp),%eax
 31d:	76 dd                	jbe    2fc <printint+0x28>
  if(neg)
 31f:	8b 4d 08             	mov    0x8(%ebp),%ecx
 322:	85 c9                	test   %ecx,%ecx
 324:	74 09                	je     32f <printint+0x5b>
    buf[i++] = '-';
 326:	c6 44 3d d8 2d       	movb   $0x2d,-0x28(%ebp,%edi,1)
    buf[i++] = digits[x % base];
 32b:	89 fb                	mov    %edi,%ebx
    buf[i++] = '-';
 32d:	b2 2d                	mov    $0x2d,%dl

  while(--i >= 0)
 32f:	8d 5c 1d d7          	lea    -0x29(%ebp,%ebx,1),%ebx
 333:	8b 7d bc             	mov    -0x44(%ebp),%edi
 336:	eb 03                	jmp    33b <printint+0x67>
    putc(fd, buf[i]);
 338:	8a 13                	mov    (%ebx),%dl
 33a:	4b                   	dec    %ebx
 33b:	88 55 d7             	mov    %dl,-0x29(%ebp)
  write(fd, &c, 1);
 33e:	50                   	push   %eax
 33f:	6a 01                	push   $0x1
 341:	56                   	push   %esi
 342:	57                   	push   %edi
 343:	e8 0b ff ff ff       	call   253 <write>
  while(--i >= 0)
 348:	83 c4 10             	add    $0x10,%esp
 34b:	39 de                	cmp    %ebx,%esi
 34d:	75 e9                	jne    338 <printint+0x64>
}
 34f:	8d 65 f4             	lea    -0xc(%ebp),%esp
 352:	5b                   	pop    %ebx
 353:	5e                   	pop    %esi
 354:	5f                   	pop    %edi
 355:	5d                   	pop    %ebp
 356:	c3                   	ret    
 357:	90                   	nop
    x = -xx;
 358:	f7 d9                	neg    %ecx
 35a:	eb 9b                	jmp    2f7 <printint+0x23>

0000035c <printf>:

// Print to the given fd. Only understands %d, %x, %p, %s.
void
printf(int fd, const char *fmt, ...)
{
 35c:	55                   	push   %ebp
 35d:	89 e5                	mov    %esp,%ebp
 35f:	57                   	push   %edi
 360:	56                   	push   %esi
 361:	53                   	push   %ebx
 362:	83 ec 2c             	sub    $0x2c,%esp
 365:	8b 75 08             	mov    0x8(%ebp),%esi
  int c, i, state;
  uint *ap;

  state = 0;
  ap = (uint*)(void*)&fmt + 1;
  for(i = 0; fmt[i]; i++){
 368:	8b 5d 0c             	mov    0xc(%ebp),%ebx
 36b:	8a 13                	mov    (%ebx),%dl
 36d:	84 d2                	test   %dl,%dl
 36f:	74 64                	je     3d5 <printf+0x79>
 371:	43                   	inc    %ebx
  ap = (uint*)(void*)&fmt + 1;
 372:	8d 45 10             	lea    0x10(%ebp),%eax
 375:	89 45 d0             	mov    %eax,-0x30(%ebp)
  state = 0;
 378:	31 c9                	xor    %ecx,%ecx
  write(fd, &c, 1);
 37a:	8d 7d e7             	lea    -0x19(%ebp),%edi
 37d:	eb 24                	jmp    3a3 <printf+0x47>
 37f:	90                   	nop
 380:	89 4d d4             	mov    %ecx,-0x2c(%ebp)
    c = fmt[i] & 0xff;
    if(state == 0){
      if(c == '%'){
 383:	83 f8 25             	cmp    $0x25,%eax
 386:	74 40                	je     3c8 <printf+0x6c>
        state = '%';
      } else {
        putc(fd, c);
 388:	88 55 e7             	mov    %dl,-0x19(%ebp)
  write(fd, &c, 1);
 38b:	50                   	push   %eax
 38c:	6a 01                	push   $0x1
 38e:	57                   	push   %edi
 38f:	56                   	push   %esi
 390:	e8 be fe ff ff       	call   253 <write>
        putc(fd, c);
 395:	83 c4 10             	add    $0x10,%esp
 398:	8b 4d d4             	mov    -0x2c(%ebp),%ecx
  for(i = 0; fmt[i]; i++){
 39b:	43                   	inc    %ebx
 39c:	8a 53 ff             	mov    -0x1(%ebx),%dl
 39f:	84 d2                	test   %dl,%dl
 3a1:	74 32                	je     3d5 <printf+0x79>
    c = fmt[i] & 0xff;
 3a3:	0f b6 c2             	movzbl %dl,%eax
    if(state == 0){
 3a6:	85 c9                	test   %ecx,%ecx
 3a8:	74 d6                	je     380 <printf+0x24>
      }
    } else if(state == '%'){
 3aa:	83 f9 25             	cmp    $0x25,%ecx
 3ad:	75 ec                	jne    39b <printf+0x3f>
      if(c == 'd'){
 3af:	83 f8 25             	cmp    $0x25,%eax
 3b2:	0f 84 e4 00 00 00    	je     49c <printf+0x140>
 3b8:	83 e8 63             	sub    $0x63,%eax
 3bb:	83 f8 15             	cmp    $0x15,%eax
 3be:	77 20                	ja     3e0 <printf+0x84>
 3c0:	ff 24 85 70 06 00 00 	jmp    *0x670(,%eax,4)
 3c7:	90                   	nop
        state = '%';
 3c8:	b9 25 00 00 00       	mov    $0x25,%ecx
  for(i = 0; fmt[i]; i++){
 3cd:	43                   	inc    %ebx
 3ce:	8a 53 ff             	mov    -0x1(%ebx),%dl
 3d1:	84 d2                	test   %dl,%dl
 3d3:	75 ce                	jne    3a3 <printf+0x47>
        putc(fd, c);
      }
      state = 0;
    }
  }
}
 3d5:	8d 65 f4             	lea    -0xc(%ebp),%esp
 3d8:	5b                   	pop    %ebx
 3d9:	5e                   	pop    %esi
 3da:	5f                   	pop    %edi
 3db:	5d                   	pop    %ebp
 3dc:	c3                   	ret    
 3dd:	8d 76 00             	lea    0x0(%esi),%esi
 3e0:	88 55 d4             	mov    %dl,-0x2c(%ebp)
        putc(fd, '%');
 3e3:	c6 45 e7 25          	movb   $0x25,-0x19(%ebp)
  write(fd, &c, 1);
 3e7:	50                   	push   %eax
 3e8:	6a 01                	push   $0x1
 3ea:	57                   	push   %edi
 3eb:	56                   	push   %esi
 3ec:	e8 62 fe ff ff       	call   253 <write>
        putc(fd, c);
 3f1:	8a 55 d4             	mov    -0x2c(%ebp),%dl
 3f4:	88 55 e7             	mov    %dl,-0x19(%ebp)
  write(fd, &c, 1);
 3f7:	83 c4 0c             	add    $0xc,%esp
 3fa:	6a 01                	push   $0x1
 3fc:	57                   	push   %edi
 3fd:	56                   	push   %esi
 3fe:	e8 50 fe ff ff       	call   253 <write>
        putc(fd, c);
 403:	83 c4 10             	add    $0x10,%esp
      state = 0;
 406:	31 c9                	xor    %ecx,%ecx
 408:	eb 91                	jmp    39b <printf+0x3f>
 40a:	66 90                	xchg   %ax,%ax
        printint(fd, *ap, 16, 0);
 40c:	83 ec 0c             	sub    $0xc,%esp
 40f:	6a 00                	push   $0x0
 411:	b9 10 00 00 00       	mov    $0x10,%ecx
 416:	8b 45 d0             	mov    -0x30(%ebp),%eax
 419:	8b 10                	mov    (%eax),%edx
 41b:	89 f0                	mov    %esi,%eax
 41d:	e8 b2 fe ff ff       	call   2d4 <printint>
        ap++;
 422:	83 45 d0 04          	addl   $0x4,-0x30(%ebp)
 426:	83 c4 10             	add    $0x10,%esp
      state = 0;
 429:	31 c9                	xor    %ecx,%ecx
        ap++;
 42b:	e9 6b ff ff ff       	jmp    39b <printf+0x3f>
        s = (char*)*ap;
 430:	8b 45 d0             	mov    -0x30(%ebp),%eax
 433:	8b 10                	mov    (%eax),%edx
        ap++;
 435:	83 c0 04             	add    $0x4,%eax
 438:	89 45 d0             	mov    %eax,-0x30(%ebp)
        if(s == 0)
 43b:	85 d2                	test   %edx,%edx
 43d:	74 69                	je     4a8 <printf+0x14c>
        while(*s != 0){
 43f:	8a 02                	mov    (%edx),%al
 441:	84 c0                	test   %al,%al
 443:	74 71                	je     4b6 <printf+0x15a>
 445:	89 5d d4             	mov    %ebx,-0x2c(%ebp)
 448:	89 d3                	mov    %edx,%ebx
 44a:	66 90                	xchg   %ax,%ax
          putc(fd, *s);
 44c:	88 45 e7             	mov    %al,-0x19(%ebp)
  write(fd, &c, 1);
 44f:	50                   	push   %eax
 450:	6a 01                	push   $0x1
 452:	57                   	push   %edi
 453:	56                   	push   %esi
 454:	e8 fa fd ff ff       	call   253 <write>
          s++;
 459:	43                   	inc    %ebx
        while(*s != 0){
 45a:	8a 03                	mov    (%ebx),%al
 45c:	83 c4 10             	add    $0x10,%esp
 45f:	84 c0                	test   %al,%al
 461:	75 e9                	jne    44c <printf+0xf0>
      state = 0;
 463:	8b 5d d4             	mov    -0x2c(%ebp),%ebx
 466:	31 c9                	xor    %ecx,%ecx
 468:	e9 2e ff ff ff       	jmp    39b <printf+0x3f>
 46d:	8d 76 00             	lea    0x0(%esi),%esi
        printint(fd, *ap, 10, 1);
 470:	83 ec 0c             	sub    $0xc,%esp
 473:	6a 01                	push   $0x1
 475:	b9 0a 00 00 00       	mov    $0xa,%ecx
 47a:	eb 9a                	jmp    416 <printf+0xba>
        putc(fd, *ap);
 47c:	8b 45 d0             	mov    -0x30(%ebp),%eax
 47f:	8b 00                	mov    (%eax),%eax
 481:	88 45 e7             	mov    %al,-0x19(%ebp)
  write(fd, &c, 1);
 484:	51                   	push   %ecx
 485:	6a 01                	push   $0x1
 487:	57                   	push   %edi
 488:	56                   	push   %esi
 489:	e8 c5 fd ff ff       	call   253 <write>
        ap++;
 48e:	83 45 d0 04          	addl   $0x4,-0x30(%ebp)
 492:	83 c4 10             	add    $0x10,%esp
      state = 0;
 495:	31 c9                	xor    %ecx,%ecx
 497:	e9 ff fe ff ff       	jmp    39b <printf+0x3f>
        putc(fd, c);
 49c:	88 55 e7             	mov    %dl,-0x19(%ebp)
  write(fd, &c, 1);
 49f:	52                   	push   %edx
 4a0:	e9 55 ff ff ff       	jmp    3fa <printf+0x9e>
 4a5:	8d 76 00             	lea    0x0(%esi),%esi
          s = "(null)";
 4a8:	ba 67 06 00 00       	mov    $0x667,%edx
        while(*s != 0){
 4ad:	b0 28                	mov    $0x28,%al
 4af:	89 5d d4             	mov    %ebx,-0x2c(%ebp)
 4b2:	89 d3                	mov    %edx,%ebx
 4b4:	eb 96                	jmp    44c <printf+0xf0>
      state = 0;
 4b6:	31 c9                	xor    %ecx,%ecx
 4b8:	e9 de fe ff ff       	jmp    39b <printf+0x3f>
 4bd:	66 90                	xchg   %ax,%ax
 4bf:	90                   	nop

000004c0 <free>:
static Header base;
static Header *freep;

void
free(void *ap)
{
 4c0:	55                   	push   %ebp
 4c1:	89 e5                	mov    %esp,%ebp
 4c3:	57                   	push   %edi
 4c4:	56                   	push   %esi
 4c5:	53                   	push   %ebx
 4c6:	8b 5d 08             	mov    0x8(%ebp),%ebx
  Header *bp, *p;

  bp = (Header*)ap - 1;
 4c9:	8d 4b f8             	lea    -0x8(%ebx),%ecx
  for(p = freep; !(bp > p && bp < p->s.ptr); p = p->s.ptr)
 4cc:	a1 dc 06 00 00       	mov    0x6dc,%eax
 4d1:	8d 76 00             	lea    0x0(%esi),%esi
 4d4:	89 c2                	mov    %eax,%edx
 4d6:	8b 00                	mov    (%eax),%eax
 4d8:	39 ca                	cmp    %ecx,%edx
 4da:	73 2c                	jae    508 <free+0x48>
 4dc:	39 c1                	cmp    %eax,%ecx
 4de:	72 04                	jb     4e4 <free+0x24>
    if(p >= p->s.ptr && (bp > p || bp < p->s.ptr))
 4e0:	39 c2                	cmp    %eax,%edx
 4e2:	72 f0                	jb     4d4 <free+0x14>
      break;
  if(bp + bp->s.size == p->s.ptr){
 4e4:	8b 73 fc             	mov    -0x4(%ebx),%esi
 4e7:	8d 3c f1             	lea    (%ecx,%esi,8),%edi
 4ea:	39 f8                	cmp    %edi,%eax
 4ec:	74 2c                	je     51a <free+0x5a>
    bp->s.size += p->s.ptr->s.size;
    bp->s.ptr = p->s.ptr->s.ptr;
 4ee:	89 43 f8             	mov    %eax,-0x8(%ebx)
  } else
    bp->s.ptr = p->s.ptr;
  if(p + p->s.size == bp){
 4f1:	8b 42 04             	mov    0x4(%edx),%eax
 4f4:	8d 34 c2             	lea    (%edx,%eax,8),%esi
 4f7:	39 f1                	cmp    %esi,%ecx
 4f9:	74 36                	je     531 <free+0x71>
    p->s.size += bp->s.size;
    p->s.ptr = bp->s.ptr;
 4fb:	89 0a                	mov    %ecx,(%edx)
  } else
    p->s.ptr = bp;
  freep = p;
 4fd:	89 15 dc 06 00 00    	mov    %edx,0x6dc
}
 503:	5b                   	pop    %ebx
 504:	5e                   	pop    %esi
 505:	5f                   	pop    %edi
 506:	5d                   	pop    %ebp
 507:	c3                   	ret    
    if(p >= p->s.ptr && (bp > p || bp < p->s.ptr))
 508:	39 c2                	cmp    %eax,%edx
 50a:	72 c8                	jb     4d4 <free+0x14>
 50c:	39 c1                	cmp    %eax,%ecx
 50e:	73 c4                	jae    4d4 <free+0x14>
  if(bp + bp->s.size == p->s.ptr){
 510:	8b 73 fc             	mov    -0x4(%ebx),%esi
 513:	8d 3c f1             	lea    (%ecx,%esi,8),%edi
 516:	39 f8                	cmp    %edi,%eax
 518:	75 d4                	jne    4ee <free+0x2e>
    bp->s.size += p->s.ptr->s.size;
 51a:	03 70 04             	add    0x4(%eax),%esi
 51d:	89 73 fc             	mov    %esi,-0x4(%ebx)
    bp->s.ptr = p->s.ptr->s.ptr;
 520:	8b 02                	mov    (%edx),%eax
 522:	8b 00                	mov    (%eax),%eax
 524:	89 43 f8             	mov    %eax,-0x8(%ebx)
  if(p + p->s.size == bp){
 527:	8b 42 04             	mov    0x4(%edx),%eax
 52a:	8d 34 c2             	lea    (%edx,%eax,8),%esi
 52d:	39 f1                	cmp    %esi,%ecx
 52f:	75 ca                	jne    4fb <free+0x3b>
    p->s.size += bp->s.size;
 531:	03 43 fc             	add    -0x4(%ebx),%eax
 534:	89 42 04             	mov    %eax,0x4(%edx)
    p->s.ptr = bp->s.ptr;
 537:	8b 4b f8             	mov    -0x8(%ebx),%ecx
 53a:	89 0a                	mov    %ecx,(%edx)
  freep = p;
 53c:	89 15 dc 06 00 00    	mov    %edx,0x6dc
}
 542:	5b                   	pop    %ebx
 543:	5e                   	pop    %esi
 544:	5f                   	pop    %edi
 545:	5d                   	pop    %ebp
 546:	c3                   	ret    
 547:	90                   	nop

00000548 <malloc>:
  return freep;
}

void*
malloc(uint nbytes)
{
 548:	55                   	push   %ebp
 549:	89 e5                	mov    %esp,%ebp
 54b:	57                   	push   %edi
 54c:	56                   	push   %esi
 54d:	53                   	push   %ebx
 54e:	83 ec 1c             	sub    $0x1c,%esp
  Header *p, *prevp;
  uint nunits;

  nunits = (nbytes + sizeof(Header) - 1)/sizeof(Header) + 1;
 551:	8b 45 08             	mov    0x8(%ebp),%eax
 554:	8d 70 07             	lea    0x7(%eax),%esi
 557:	c1 ee 03             	shr    $0x3,%esi
 55a:	46                   	inc    %esi
  if((prevp = freep) == 0){
 55b:	8b 3d dc 06 00 00    	mov    0x6dc,%edi
 561:	85 ff                	test   %edi,%edi
 563:	0f 84 a3 00 00 00    	je     60c <malloc+0xc4>
    base.s.ptr = freep = prevp = &base;
    base.s.size = 0;
  }
  for(p = prevp->s.ptr; ; prevp = p, p = p->s.ptr){
 569:	8b 17                	mov    (%edi),%edx
    if(p->s.size >= nunits){
 56b:	8b 4a 04             	mov    0x4(%edx),%ecx
 56e:	39 f1                	cmp    %esi,%ecx
 570:	73 68                	jae    5da <malloc+0x92>
 572:	89 f3                	mov    %esi,%ebx
 574:	81 fe 00 10 00 00    	cmp    $0x1000,%esi
 57a:	0f 82 80 00 00 00    	jb     600 <malloc+0xb8>
  p = sbrk(nu * sizeof(Header));
 580:	8d 04 dd 00 00 00 00 	lea    0x0(,%ebx,8),%eax
 587:	89 45 e4             	mov    %eax,-0x1c(%ebp)
 58a:	eb 11                	jmp    59d <malloc+0x55>
  for(p = prevp->s.ptr; ; prevp = p, p = p->s.ptr){
 58c:	8b 02                	mov    (%edx),%eax
    if(p->s.size >= nunits){
 58e:	8b 48 04             	mov    0x4(%eax),%ecx
 591:	39 f1                	cmp    %esi,%ecx
 593:	73 4b                	jae    5e0 <malloc+0x98>
        p->s.size = nunits;
      }
      freep = prevp;
      return (void*)(p + 1);
    }
    if(p == freep)
 595:	8b 3d dc 06 00 00    	mov    0x6dc,%edi
 59b:	89 c2                	mov    %eax,%edx
 59d:	39 d7                	cmp    %edx,%edi
 59f:	75 eb                	jne    58c <malloc+0x44>
  p = sbrk(nu * sizeof(Header));
 5a1:	83 ec 0c             	sub    $0xc,%esp
 5a4:	ff 75 e4             	push   -0x1c(%ebp)
 5a7:	e8 0f fd ff ff       	call   2bb <sbrk>
  if(p == (char*)-1)
 5ac:	83 c4 10             	add    $0x10,%esp
 5af:	83 f8 ff             	cmp    $0xffffffff,%eax
 5b2:	74 1c                	je     5d0 <malloc+0x88>
  hp->s.size = nu;
 5b4:	89 58 04             	mov    %ebx,0x4(%eax)
  free((void*)(hp + 1));
 5b7:	83 ec 0c             	sub    $0xc,%esp
 5ba:	83 c0 08             	add    $0x8,%eax
 5bd:	50                   	push   %eax
 5be:	e8 fd fe ff ff       	call   4c0 <free>
  return freep;
 5c3:	8b 15 dc 06 00 00    	mov    0x6dc,%edx
      if((p = morecore(nunits)) == 0)
 5c9:	83 c4 10             	add    $0x10,%esp
 5cc:	85 d2                	test   %edx,%edx
 5ce:	75 bc                	jne    58c <malloc+0x44>
        return 0;
 5d0:	31 c0                	xor    %eax,%eax
  }
}
 5d2:	8d 65 f4             	lea    -0xc(%ebp),%esp
 5d5:	5b                   	pop    %ebx
 5d6:	5e                   	pop    %esi
 5d7:	5f                   	pop    %edi
 5d8:	5d                   	pop    %ebp
 5d9:	c3                   	ret    
    if(p->s.size >= nunits){
 5da:	89 d0                	mov    %edx,%eax
 5dc:	89 fa                	mov    %edi,%edx
 5de:	66 90                	xchg   %ax,%ax
      if(p->s.size == nunits)
 5e0:	39 ce                	cmp    %ecx,%esi
 5e2:	74 54                	je     638 <malloc+0xf0>
        p->s.size -= nunits;
 5e4:	29 f1                	sub    %esi,%ecx
 5e6:	89 48 04             	mov    %ecx,0x4(%eax)
        p += p->s.size;
 5e9:	8d 04 c8             	lea    (%eax,%ecx,8),%eax
        p->s.size = nunits;
 5ec:	89 70 04             	mov    %esi,0x4(%eax)
      freep = prevp;
 5ef:	89 15 dc 06 00 00    	mov    %edx,0x6dc
      return (void*)(p + 1);
 5f5:	83 c0 08             	add    $0x8,%eax
}
 5f8:	8d 65 f4             	lea    -0xc(%ebp),%esp
 5fb:	5b                   	pop    %ebx
 5fc:	5e                   	pop    %esi
 5fd:	5f                   	pop    %edi
 5fe:	5d                   	pop    %ebp
 5ff:	c3                   	ret    
 600:	bb 00 10 00 00       	mov    $0x1000,%ebx
 605:	e9 76 ff ff ff       	jmp    580 <malloc+0x38>
 60a:	66 90                	xchg   %ax,%ax
    base.s.ptr = freep = prevp = &base;
 60c:	c7 05 dc 06 00 00 e0 	movl   $0x6e0,0x6dc
 613:	06 00 00 
 616:	c7 05 e0 06 00 00 e0 	movl   $0x6e0,0x6e0
 61d:	06 00 00 
    base.s.size = 0;
 620:	c7 05 e4 06 00 00 00 	movl   $0x0,0x6e4
 627:	00 00 00 
 62a:	bf e0 06 00 00       	mov    $0x6e0,%edi
  for(p = prevp->s.ptr; ; prevp = p, p = p->s.ptr){
 62f:	89 fa                	mov    %edi,%edx
 631:	e9 3c ff ff ff       	jmp    572 <malloc+0x2a>
 636:	66 90                	xchg   %ax,%ax
        prevp->s.ptr = p->s.ptr;
 638:	8b 08                	mov    (%eax),%ecx
 63a:	89 0a                	mov    %ecx,(%edx)
 63c:	eb b1                	jmp    5ef <malloc+0xa7>
